target datalayout = "e-m:e-p270:32:32-p271:32:32-p272:64:64-i64:64-i128:128-f80:128-n8:16:32:64-S128"
target triple = "x86_64-pc-linux-gnu"

%struct.CreateUserMappingStmt = type { i32, ptr, ptr, i8, ptr }

; Function Attrs: nounwind uwtable
define internal zeroext i1 @_equalCreateUserMappingStmt(ptr noundef %0, ptr noundef %1) #0 {
  %3 = alloca i1, align 1
  %4 = alloca ptr, align 8
  %5 = alloca ptr, align 8
  store ptr %0, ptr %4, align 8
  store ptr %1, ptr %5, align 8
  br label %6

6:                                                ; preds = %2
  %7 = load ptr, ptr %4, align 8
  %8 = getelementptr inbounds nuw %struct.CreateUserMappingStmt, ptr %7, i32 0, i32 1
  %9 = load ptr, ptr %8, align 8
  %10 = load ptr, ptr %5, align 8
  %11 = getelementptr inbounds nuw %struct.CreateUserMappingStmt, ptr %10, i32 0, i32 1
  %12 = load ptr, ptr %11, align 8
  %13 = call zeroext i1 @equal(ptr noundef %9, ptr noundef %12)
  br i1 %13, label %15, label %14

14:                                               ; preds = %6
  store i1 false, ptr %3, align 1
  br label %73

15:                                               ; preds = %6
  br label %16

16:                                               ; preds = %15
  br label %17

17:                                               ; preds = %16
  %18 = load ptr, ptr %4, align 8
  %19 = getelementptr inbounds nuw %struct.CreateUserMappingStmt, ptr %18, i32 0, i32 2
  %20 = load ptr, ptr %19, align 8
  %21 = icmp ne ptr %20, null
  br i1 %21, label %22, label %36

22:                                               ; preds = %17
  %23 = load ptr, ptr %5, align 8
  %24 = getelementptr inbounds nuw %struct.CreateUserMappingStmt, ptr %23, i32 0, i32 2
  %25 = load ptr, ptr %24, align 8
  %26 = icmp ne ptr %25, null
  br i1 %26, label %27, label %36

27:                                               ; preds = %22
  %28 = load ptr, ptr %4, align 8
  %29 = getelementptr inbounds nuw %struct.CreateUserMappingStmt, ptr %28, i32 0, i32 2
  %30 = load ptr, ptr %29, align 8
  %31 = load ptr, ptr %5, align 8
  %32 = getelementptr inbounds nuw %struct.CreateUserMappingStmt, ptr %31, i32 0, i32 2
  %33 = load ptr, ptr %32, align 8
  %34 = call i32 @strcmp(ptr noundef %30, ptr noundef %33) #8
  %35 = icmp eq i32 %34, 0
  br i1 %35, label %45, label %44

36:                                               ; preds = %22, %17
  %37 = load ptr, ptr %4, align 8
  %38 = getelementptr inbounds nuw %struct.CreateUserMappingStmt, ptr %37, i32 0, i32 2
  %39 = load ptr, ptr %38, align 8
  %40 = load ptr, ptr %5, align 8
  %41 = getelementptr inbounds nuw %struct.CreateUserMappingStmt, ptr %40, i32 0, i32 2
  %42 = load ptr, ptr %41, align 8
  %43 = icmp eq ptr %39, %42
  br i1 %43, label %45, label %44

44:                                               ; preds = %36, %27
  store i1 false, ptr %3, align 1
  br label %73

45:                                               ; preds = %36, %27
  br label %46

46:                                               ; preds = %45
  br label %47

47:                                               ; preds = %46
  %48 = load ptr, ptr %4, align 8
  %49 = getelementptr inbounds nuw %struct.CreateUserMappingStmt, ptr %48, i32 0, i32 3
  %50 = load i8, ptr %49, align 8, !range !4, !noundef !5
  %51 = trunc i8 %50 to i1
  %52 = zext i1 %51 to i32
  %53 = load ptr, ptr %5, align 8
  %54 = getelementptr inbounds nuw %struct.CreateUserMappingStmt, ptr %53, i32 0, i32 3
  %55 = load i8, ptr %54, align 8, !range !4, !noundef !5
  %56 = trunc i8 %55 to i1
  %57 = zext i1 %56 to i32
  %58 = icmp ne i32 %52, %57
  br i1 %58, label %59, label %60

59:                                               ; preds = %47
  store i1 false, ptr %3, align 1
  br label %73

60:                                               ; preds = %47
  br label %61

61:                                               ; preds = %60
  br label %62

62:                                               ; preds = %61
  %63 = load ptr, ptr %4, align 8
  %64 = getelementptr inbounds nuw %struct.CreateUserMappingStmt, ptr %63, i32 0, i32 4
  %65 = load ptr, ptr %64, align 8
  %66 = load ptr, ptr %5, align 8
  %67 = getelementptr inbounds nuw %struct.CreateUserMappingStmt, ptr %66, i32 0, i32 4
  %68 = load ptr, ptr %67, align 8
  %69 = call zeroext i1 @equal(ptr noundef %65, ptr noundef %68)
  br i1 %69, label %71, label %70

70:                                               ; preds = %62
  store i1 false, ptr %3, align 1
  br label %73

71:                                               ; preds = %62
  br label %72

72:                                               ; preds = %71
  store i1 true, ptr %3, align 1
  br label %73

73:                                               ; preds = %72, %70, %59, %44, %14
  %74 = load i1, ptr %3, align 1
  ret i1 %74
}