; Function Attrs: nounwind uwtable
define internal fastcc zeroext i1 @_equalCreateUserMappingStmt(ptr noundef nonnull readonly captures(none) %0, ptr noundef nonnull readonly captures(none) %1) unnamed_addr #0 {
  %3 = getelementptr inbounds nuw i8, ptr %0, i64 8
  %4 = load ptr, ptr %3, align 8
  %5 = getelementptr inbounds nuw i8, ptr %1, i64 8
  %6 = load ptr, ptr %5, align 8
  %7 = tail call zeroext i1 @equal(ptr noundef %4, ptr noundef %6)
  br i1 %7, label %8, label %.thread

8:                                                ; preds = %2
  %9 = getelementptr inbounds nuw i8, ptr %0, i64 16
  %10 = load ptr, ptr %9, align 8
  %.not = icmp eq ptr %10, null
  %.phi.trans.insert = getelementptr inbounds nuw i8, ptr %1, i64 16
  %.pre = load ptr, ptr %.phi.trans.insert, align 8
  br i1 %.not, label %15, label %11

11:                                               ; preds = %8
  %.not15 = icmp eq ptr %.pre, null
  br i1 %.not15, label %.thread, label %12

12:                                               ; preds = %11
  %13 = tail call i32 @strcmp(ptr noundef nonnull dereferenceable(1) %10, ptr noundef nonnull dereferenceable(1) %.pre) #11
  %14 = icmp eq i32 %13, 0
  br i1 %14, label %17, label %.thread

15:                                               ; preds = %8
  %16 = icmp eq ptr %10, %.pre
  br i1 %16, label %17, label %.thread

17:                                               ; preds = %15, %12
  %18 = getelementptr inbounds nuw i8, ptr %0, i64 24
  %19 = load i8, ptr %18, align 8, !range !4, !noundef !5
  %20 = getelementptr inbounds nuw i8, ptr %1, i64 24
  %21 = load i8, ptr %20, align 8, !range !4, !noundef !5
  %.not16 = icmp eq i8 %19, %21
  br i1 %.not16, label %22, label %.thread

22:                                               ; preds = %17
  %23 = getelementptr inbounds nuw i8, ptr %0, i64 32
  %24 = load ptr, ptr %23, align 8
  %25 = getelementptr inbounds nuw i8, ptr %1, i64 32
  %26 = load ptr, ptr %25, align 8
  %27 = tail call zeroext i1 @equal(ptr noundef %24, ptr noundef %26)
  br label %.thread

.thread:                                          ; preds = %11, %22, %17, %12, %15, %2
  %.0 = phi i1 [ false, %2 ], [ false, %15 ], [ false, %12 ], [ false, %17 ], [ %27, %22 ], [ false, %11 ]
  ret i1 %.0
}